target datalayout = "e-m:e-p270:32:32-p271:32:32-p272:64:64-i64:64-i128:128-f80:128-n8:16:32:64-S128"
target triple = "x86_64-pc-linux-gnu"

%struct.expert_field = type { i32, i32 }

@hf_pfcp_spare_b7_b4 = internal global i32 0, align 4
@hf_pfcp_fq_csid_node_id_type = internal global i32 0, align 4
@hf_pfcp_num_csid = internal global i32 0, align 4
@hf_pfcp_fq_csid_node_id_ipv4 = internal global i32 0, align 4
@hf_pfcp_fq_csid_node_id_ipv6 = internal global i32 0, align 4
@hf_pfcp_fq_csid_node_id_mcc_mnc = internal global i32 0, align 4
@hf_pfcp_fq_csid_node_id_int = internal global i32 0, align 4
@hf_pfcp_fq_csid = internal global i32 0, align 4
@hf_pfcp_fq_csid_node_type = internal global i32 0, align 4
@ei_pfcp_ie_data_not_decoded = internal global %struct.expert_field zeroinitializer, align 4

; Function Attrs: null_pointer_is_valid sspstrong uwtable
define internal void @dissect_pfcp_fq_csid(ptr noundef %0, ptr noundef %1, ptr noundef %2, ptr noundef %3, i16 noundef zeroext %4, i8 noundef zeroext %5, ptr noundef %6) #0 {
  %8 = alloca ptr, align 8
  %9 = alloca ptr, align 8
  %10 = alloca ptr, align 8
  %11 = alloca ptr, align 8
  %12 = alloca i16, align 2
  %13 = alloca i8, align 1
  %14 = alloca ptr, align 8
  %15 = alloca i32, align 4
  %16 = alloca i32, align 4
  %17 = alloca i32, align 4
  store ptr %0, ptr %8, align 8
  store ptr %1, ptr %9, align 8
  store ptr %2, ptr %10, align 8
  store ptr %3, ptr %11, align 8
  store i16 %4, ptr %12, align 2
  store i8 %5, ptr %13, align 1
  store ptr %6, ptr %14, align 8
  call void @llvm.lifetime.start.p0(i64 4, ptr %15) #13
  store i32 0, ptr %15, align 4
  call void @llvm.lifetime.start.p0(i64 4, ptr %16) #13
  call void @llvm.lifetime.start.p0(i64 4, ptr %17) #13
  %18 = load ptr, ptr %10, align 8
  %19 = load i32, ptr @hf_pfcp_fq_csid_node_id_type, align 4
  %20 = load ptr, ptr %8, align 8
  %21 = load i32, ptr %15, align 4
  %22 = call ptr @proto_tree_add_item_ret_uint(ptr noundef %18, i32 noundef %19, ptr noundef %20, i32 noundef %21, i32 noundef 1, i32 noundef 0, ptr noundef %16)
  %23 = load ptr, ptr %10, align 8
  %24 = load i32, ptr @hf_pfcp_num_csid, align 4
  %25 = load ptr, ptr %8, align 8
  %26 = load i32, ptr %15, align 4
  %27 = call ptr @proto_tree_add_item_ret_uint(ptr noundef %23, i32 noundef %24, ptr noundef %25, i32 noundef %26, i32 noundef 1, i32 noundef 0, ptr noundef %17)
  %28 = load i32, ptr %15, align 4
  %29 = add i32 %28, 1
  store i32 %29, ptr %15, align 4
  %30 = load i32, ptr %16, align 4
  switch i32 %30, label %60 [
    i32 0, label %31
    i32 1, label %39
    i32 2, label %47
  ]

31:                                               ; preds = %7
  %32 = load ptr, ptr %10, align 8
  %33 = load i32, ptr @hf_pfcp_fq_csid_node_id_ipv4, align 4
  %34 = load ptr, ptr %8, align 8
  %35 = load i32, ptr %15, align 4
  %36 = call ptr @proto_tree_add_item(ptr noundef %32, i32 noundef %33, ptr noundef %34, i32 noundef %35, i32 noundef 4, i32 noundef 0)
  %37 = load i32, ptr %15, align 4
  %38 = add i32 %37, 4
  store i32 %38, ptr %15, align 4
  br label %66

39:                                               ; preds = %7
  %40 = load ptr, ptr %10, align 8
  %41 = load i32, ptr @hf_pfcp_fq_csid_node_id_ipv6, align 4
  %42 = load ptr, ptr %8, align 8
  %43 = load i32, ptr %15, align 4
  %44 = call ptr @proto_tree_add_item(ptr noundef %40, i32 noundef %41, ptr noundef %42, i32 noundef %43, i32 noundef 16, i32 noundef 0)
  %45 = load i32, ptr %15, align 4
  %46 = add i32 %45, 16
  store i32 %46, ptr %15, align 4
  br label %66

47:                                               ; preds = %7
  %48 = load ptr, ptr %10, align 8
  %49 = load i32, ptr @hf_pfcp_fq_csid_node_id_mcc_mnc, align 4
  %50 = load ptr, ptr %8, align 8
  %51 = load i32, ptr %15, align 4
  %52 = call ptr @proto_tree_add_item(ptr noundef %48, i32 noundef %49, ptr noundef %50, i32 noundef %51, i32 noundef 4, i32 noundef 0)
  %53 = load ptr, ptr %10, align 8
  %54 = load i32, ptr @hf_pfcp_fq_csid_node_id_int, align 4
  %55 = load ptr, ptr %8, align 8
  %56 = load i32, ptr %15, align 4
  %57 = call ptr @proto_tree_add_item(ptr noundef %53, i32 noundef %54, ptr noundef %55, i32 noundef %56, i32 noundef 4, i32 noundef 0)
  %58 = load i32, ptr %15, align 4
  %59 = add i32 %58, 4
  store i32 %59, ptr %15, align 4
  br label %66

60:                                               ; preds = %7
  %61 = load ptr, ptr %10, align 8
  %62 = load ptr, ptr %9, align 8
  %63 = load ptr, ptr %8, align 8
  %64 = load i32, ptr %15, align 4
  %65 = call ptr @proto_tree_add_expert(ptr noundef %61, ptr noundef %62, ptr noundef @ei_pfcp_ie_data_not_decoded, ptr noundef %63, i32 noundef %64, i32 noundef -1)
  br label %66

66:                                               ; preds = %60, %47, %39, %31
  br label %67

67:                                               ; preds = %70, %66
  %68 = load i32, ptr %17, align 4
  %69 = icmp ugt i32 %68, 0
  br i1 %69, label %70, label %80

70:                                               ; preds = %67
  %71 = load ptr, ptr %10, align 8
  %72 = load i32, ptr @hf_pfcp_fq_csid, align 4
  %73 = load ptr, ptr %8, align 8
  %74 = load i32, ptr %15, align 4
  %75 = call ptr @proto_tree_add_item(ptr noundef %71, i32 noundef %72, ptr noundef %73, i32 noundef %74, i32 noundef 2, i32 noundef 0)
  %76 = load i32, ptr %15, align 4
  %77 = add i32 %76, 2
  store i32 %77, ptr %15, align 4
  %78 = load i32, ptr %17, align 4
  %79 = add i32 %78, -1
  store i32 %79, ptr %17, align 4
  br label %67, !llvm.loop !20

80:                                               ; preds = %67
  %81 = load i32, ptr %15, align 4
  %82 = load i16, ptr %12, align 2
  %83 = zext i16 %82 to i32
  %84 = icmp slt i32 %81, %83
  br i1 %84, label %85, label %98

85:                                               ; preds = %80
  %86 = load ptr, ptr %10, align 8
  %87 = load i32, ptr @hf_pfcp_spare_b7_b4, align 4
  %88 = load ptr, ptr %8, align 8
  %89 = load i32, ptr %15, align 4
  %90 = call ptr @proto_tree_add_item(ptr noundef %86, i32 noundef %87, ptr noundef %88, i32 noundef %89, i32 noundef 1, i32 noundef 0)
  %91 = load ptr, ptr %10, align 8
  %92 = load i32, ptr @hf_pfcp_fq_csid_node_type, align 4
  %93 = load ptr, ptr %8, align 8
  %94 = load i32, ptr %15, align 4
  %95 = call ptr @proto_tree_add_item(ptr noundef %91, i32 noundef %92, ptr noundef %93, i32 noundef %94, i32 noundef 1, i32 noundef 0)
  %96 = load i32, ptr %15, align 4
  %97 = add i32 %96, 1
  store i32 %97, ptr %15, align 4
  br label %98

98:                                               ; preds = %85, %80
  %99 = load i32, ptr %15, align 4
  %100 = load i16, ptr %12, align 2
  %101 = zext i16 %100 to i32
  %102 = icmp slt i32 %99, %101
  br i1 %102, label %103, label %109

103:                                              ; preds = %98
  %104 = load ptr, ptr %10, align 8
  %105 = load ptr, ptr %9, align 8
  %106 = load ptr, ptr %8, align 8
  %107 = load i32, ptr %15, align 4
  %108 = call ptr @proto_tree_add_expert(ptr noundef %104, ptr noundef %105, ptr noundef @ei_pfcp_ie_data_not_decoded, ptr noundef %106, i32 noundef %107, i32 noundef -1)
  br label %109

109:                                              ; preds = %103, %98
  call void @llvm.lifetime.end.p0(i64 4, ptr %17) #13
  call void @llvm.lifetime.end.p0(i64 4, ptr %16) #13
  call void @llvm.lifetime.end.p0(i64 4, ptr %15) #13
  ret void
}