; Function Attrs: null_pointer_is_valid sspstrong uwtable
define internal void @dissect_pfcp_fq_csid(ptr noundef %0, ptr noundef %1, ptr noundef %2, ptr readnone captures(none) %3, i16 noundef zeroext %4, i8 zeroext %5, ptr readnone captures(none) %6) #0 {
  %8 = alloca i32, align 4
  %9 = alloca i32, align 4
  call void @llvm.lifetime.start.p0(i64 4, ptr nonnull %8) #15
  call void @llvm.lifetime.start.p0(i64 4, ptr nonnull %9) #15
  %10 = load i32, ptr @hf_pfcp_fq_csid_node_id_type, align 4
  %11 = call ptr @proto_tree_add_item_ret_uint(ptr noundef %2, i32 noundef %10, ptr noundef %0, i32 noundef 0, i32 noundef 1, i32 noundef 0, ptr noundef nonnull %8)
  %12 = load i32, ptr @hf_pfcp_num_csid, align 4
  %13 = call ptr @proto_tree_add_item_ret_uint(ptr noundef %2, i32 noundef %12, ptr noundef %0, i32 noundef 0, i32 noundef 1, i32 noundef 0, ptr noundef nonnull %9)
  %14 = load i32, ptr %8, align 4
  switch i32 %14, label %26 [
    i32 0, label %15
    i32 1, label %18
    i32 2, label %21
  ]

15:                                               ; preds = %7
  %16 = load i32, ptr @hf_pfcp_fq_csid_node_id_ipv4, align 4
  %17 = call ptr @proto_tree_add_item(ptr noundef %2, i32 noundef %16, ptr noundef %0, i32 noundef 1, i32 noundef 4, i32 noundef 0)
  br label %28

18:                                               ; preds = %7
  %19 = load i32, ptr @hf_pfcp_fq_csid_node_id_ipv6, align 4
  %20 = call ptr @proto_tree_add_item(ptr noundef %2, i32 noundef %19, ptr noundef %0, i32 noundef 1, i32 noundef 16, i32 noundef 0)
  br label %28

21:                                               ; preds = %7
  %22 = load i32, ptr @hf_pfcp_fq_csid_node_id_mcc_mnc, align 4
  %23 = call ptr @proto_tree_add_item(ptr noundef %2, i32 noundef %22, ptr noundef %0, i32 noundef 1, i32 noundef 4, i32 noundef 0)
  %24 = load i32, ptr @hf_pfcp_fq_csid_node_id_int, align 4
  %25 = call ptr @proto_tree_add_item(ptr noundef %2, i32 noundef %24, ptr noundef %0, i32 noundef 1, i32 noundef 4, i32 noundef 0)
  br label %28

26:                                               ; preds = %7
  %27 = call ptr @proto_tree_add_expert(ptr noundef %2, ptr noundef %1, ptr noundef nonnull @ei_pfcp_ie_data_not_decoded, ptr noundef %0, i32 noundef 1, i32 noundef -1)
  br label %28

28:                                               ; preds = %26, %21, %18, %15
  %.0 = phi i32 [ 1, %26 ], [ 5, %21 ], [ 17, %18 ], [ 5, %15 ]
  %.pr = load i32, ptr %9, align 4
  %.not44 = icmp eq i32 %.pr, 0
  br i1 %.not44, label %._crit_edge, label %.lr.ph

.lr.ph:                                           ; preds = %28, %.lr.ph
  %.145 = phi i32 [ %31, %.lr.ph ], [ %.0, %28 ]
  %29 = load i32, ptr @hf_pfcp_fq_csid, align 4
  %30 = call ptr @proto_tree_add_item(ptr noundef %2, i32 noundef %29, ptr noundef %0, i32 noundef %.145, i32 noundef 2, i32 noundef 0)
  %31 = add i32 %.145, 2
  %32 = load i32, ptr %9, align 4
  %33 = add i32 %32, -1
  store i32 %33, ptr %9, align 4
  %.not = icmp eq i32 %33, 0
  br i1 %.not, label %._crit_edge, label %.lr.ph, !llvm.loop !22

._crit_edge:                                      ; preds = %.lr.ph, %28
  %.1.lcssa = phi i32 [ %.0, %28 ], [ %31, %.lr.ph ]
  %34 = zext i16 %4 to i32
  %35 = icmp slt i32 %.1.lcssa, %34
  br i1 %35, label %36, label %42

36:                                               ; preds = %._crit_edge
  %37 = load i32, ptr @hf_pfcp_spare_b7_b4, align 4
  %38 = call ptr @proto_tree_add_item(ptr noundef %2, i32 noundef %37, ptr noundef %0, i32 noundef %.1.lcssa, i32 noundef 1, i32 noundef 0)
  %39 = load i32, ptr @hf_pfcp_fq_csid_node_type, align 4
  %40 = call ptr @proto_tree_add_item(ptr noundef %2, i32 noundef %39, ptr noundef %0, i32 noundef %.1.lcssa, i32 noundef 1, i32 noundef 0)
  %41 = add nsw i32 %.1.lcssa, 1
  br label %42

42:                                               ; preds = %36, %._crit_edge
  %.2 = phi i32 [ %41, %36 ], [ %.1.lcssa, %._crit_edge ]
  %43 = icmp slt i32 %.2, %34
  br i1 %43, label %44, label %46

44:                                               ; preds = %42
  %45 = call ptr @proto_tree_add_expert(ptr noundef %2, ptr noundef %1, ptr noundef nonnull @ei_pfcp_ie_data_not_decoded, ptr noundef %0, i32 noundef %.2, i32 noundef -1)
  br label %46

46:                                               ; preds = %44, %42
  call void @llvm.lifetime.end.p0(i64 4, ptr nonnull %9) #15
  call void @llvm.lifetime.end.p0(i64 4, ptr nonnull %8) #15
  ret void
}